target datalayout = "e-m:e-p270:32:32-p271:32:32-p272:64:64-i64:64-i128:128-f80:128-n8:16:32:64-S128"
target triple = "x86_64-pc-linux-gnu"

%struct.ImVec2 = type { float, float }
%struct.ImRect = type { %struct.ImVec2, %struct.ImVec2 }
%struct.ImGuiWindow = type <{ ptr, ptr, i32, i32, i32, [4 x i8], ptr, %struct.ImVec2, %struct.ImVec2, %struct.ImVec2, %struct.ImVec2, %struct.ImVec2, %struct.ImVec2, %struct.ImVec2, float, float, float, float, float, float, float, float, float, float, i32, i32, i32, i32, %struct.ImVec2, %struct.ImVec2, %struct.ImVec2, %struct.ImVec2, %struct.ImVec2, %struct.ImVec2, i8, i8, i8, i8, i8, i8, i8, i8, i8, i8, i8, i8, i8, i8, i8, i8, i16, i16, i16, i16, i16, i8, i8, i8, [3 x i8], i32, i8, i8, i8, i8, i32, %struct.ImVec2, %struct.ImVec2, [4 x i8], %struct.ImVector, %struct.ImGuiWindowTempData, %struct.ImRect, %struct.ImRect, %struct.ImRect, %struct.ImRect, %struct.ImRect, %struct.ImRect, %struct.ImRect, %struct.ImVec2ih, %struct.ImVec2ih, i32, float, float, [4 x i8], %struct.ImGuiStorage, %struct.ImVector.3, float, i32, ptr, %struct.ImDrawList, ptr, ptr, ptr, ptr, ptr, ptr, ptr, ptr, [2 x i32], [2 x %struct.ImRect], [2 x %struct.ImVec2], i32, i32, i32, i8, [3 x i8] }>
%struct.ImVector = type { i32, i32, ptr }
%struct.ImGuiWindowTempData = type { %struct.ImVec2, %struct.ImVec2, %struct.ImVec2, %struct.ImVec2, %struct.ImVec2, %struct.ImVec2, %struct.ImVec2, float, float, i8, i8, %struct.ImVec1, %struct.ImVec1, %struct.ImVec1, %struct.ImVec2, i32, i16, i16, i8, i8, i8, i8, %struct.ImVec2, %struct.ImGuiMenuColumns, i32, i32, %struct.ImVector.0, ptr, ptr, i32, i32, i32, i32, float, float, %struct.ImVector.1, %struct.ImVector.1 }
%struct.ImVec1 = type { float }
%struct.ImGuiMenuColumns = type <{ i32, i32, i16, i16, i16, i16, i16, [4 x i16], [2 x i8] }>
%struct.ImVector.0 = type { i32, i32, ptr }
%struct.ImVector.1 = type { i32, i32, ptr }
%struct.ImVec2ih = type { i16, i16 }
%struct.ImGuiStorage = type { %struct.ImVector.2 }
%struct.ImVector.2 = type { i32, i32, ptr }
%struct.ImVector.3 = type { i32, i32, ptr }
%struct.ImDrawList = type { %struct.ImVector.4, %struct.ImVector.5, %struct.ImVector.6, i32, i32, ptr, ptr, ptr, %struct.ImVector.7, %struct.ImDrawCmdHeader, %struct.ImDrawListSplitter, %struct.ImVector.9, %struct.ImVector.10, float, ptr }
%struct.ImVector.4 = type { i32, i32, ptr }
%struct.ImVector.5 = type { i32, i32, ptr }
%struct.ImVector.6 = type { i32, i32, ptr }
%struct.ImVector.7 = type { i32, i32, ptr }
%struct.ImDrawCmdHeader = type <{ %struct.ImVec4, ptr, i32, [4 x i8] }>
%struct.ImVec4 = type { float, float, float, float }
%struct.ImDrawListSplitter = type { i32, i32, %struct.ImVector.8 }
%struct.ImVector.8 = type { i32, i32, ptr }
%struct.ImVector.9 = type { i32, i32, ptr }
%struct.ImVector.10 = type { i32, i32, ptr }
%struct.ImGuiContext = type { i8, i8, %struct.ImGuiIO, %struct.ImGuiPlatformIO, %struct.ImGuiStyle, ptr, float, float, float, float, %struct.ImDrawListSharedData, double, i32, i32, i32, i8, i8, i8, i8, i8, ptr, [16 x i8], %struct.ImVector.11, %struct.ImVector.11, i32, i32, %struct.ImVector.0, %struct.ImVector.0, %struct.ImVector.0, %struct.ImVector.12, %struct.ImGuiStorage, i32, %struct.ImVec2, i32, ptr, ptr, ptr, ptr, ptr, ptr, %struct.ImVec2, i32, i32, float, %struct.ImVec2, %struct.ImVec2, i32, i32, i32, i32, i32, float, float, i8, i8, i8, i32, i32, float, i8, i8, i8, i8, i8, i8, i8, i8, %struct.ImVec2, ptr, i32, i32, i8, i8, ptr, i32, float, double, double, double, %struct.ImBitArray, [154 x %struct.ImGuiKeyOwnerData], %struct.ImGuiKeyRoutingTable, i32, i8, i32, i32, i32, i32, %struct.ImGuiNextItemData, %struct.ImGuiLastItemData, %struct.ImGuiNextWindowData, i8, i32, %struct.ImVector.14, %struct.ImVector.15, %struct.ImVector.16, %struct.ImVector.17, %struct.ImVector.18, %struct.ImVector.19, %struct.ImVector.20, %struct.ImVector.20, %struct.ImVector.21, %struct.ImVector.22, ptr, i32, i32, i32, i32, i32, i32, i32, %struct.ImVector.17, i32, float, i32, i32, i32, i64, i8, i8, i8, i8, i8, i8, i8, %struct.ImGuiNavItemData, i8, i8, i8, i32, i32, i32, i32, i32, i32, %struct.ImRect, %struct.ImRect, i32, i32, i32, %struct.ImGuiNavItemData, %struct.ImGuiNavItemData, %struct.ImGuiNavItemData, %struct.ImGuiNavItemData, i32, i32, i32, i32, i8, i8, i32, i32, ptr, ptr, ptr, float, float, i8, i32, %struct.ImVec2, %struct.ImVec2, float, i8, i8, i8, i32, i32, i32, [4 x i8], %struct.ImGuiPayload, %struct.ImRect, %struct.ImRect, i32, i32, float, i32, i32, i32, i32, %struct.ImVector.23, [16 x i8], i32, %struct.ImVector.24, ptr, i32, i32, %struct.ImVector.25, %struct.ImPool, %struct.ImVector.1, %struct.ImVector.8, ptr, %struct.ImPool.27, %struct.ImVector.29, %struct.ImVector.30, %struct.ImGuiBoxSelectState, ptr, i32, %struct.ImVector.31, %struct.ImPool.32, i32, i32, float, float, i32, i32, i32, float, %struct.ImVec2, %struct.ImGuiInputTextState, %struct.ImGuiInputTextDeactivatedState, %struct.ImFont, i32, %struct.ImGuiDataTypeStorage, i32, i32, i32, i32, i32, float, float, i32, %struct.ImVec4, %struct.ImGuiComboPreviewData, %struct.ImRect, i8, i16, float, float, float, i8, i8, float, float, float, i16, i16, i16, ptr, %struct.ImVector.34, %struct.ImVector, %struct.ImGuiTypingSelectState, %struct.ImGuiPlatformImeData, %struct.ImGuiPlatformImeData, i8, float, %struct.ImGuiTextBuffer, %struct.ImVector.36, %struct.ImChunkStream, %struct.ImChunkStream.37, %struct.ImVector.38, i32, [10 x ptr], i8, i32, ptr, %struct.ImGuiTextBuffer, ptr, ptr, float, i8, i32, i32, i32, ptr, ptr, %struct.ImVec2, i8, i32, %struct.ImGuiErrorRecoveryState, ptr, i32, i32, %struct.ImGuiTextBuffer, %struct.ImGuiTextIndex, i32, i32, i8, i8, i8, i32, i8, i8, i8, i32, float, %struct.ImVec4, %struct.ImGuiMetricsConfig, %struct.ImGuiIDStackTool, %struct.ImGuiDebugAllocInfo, [60 x float], i32, i32, float, i32, i32, i32, %struct.ImVector.34, [64 x i8] }
%struct.ImGuiIO = type { i32, i32, %struct.ImVec2, float, float, ptr, ptr, ptr, ptr, float, i8, ptr, %struct.ImVec2, i8, i8, i8, i8, i8, i8, i8, i8, i8, i8, float, float, float, float, float, float, i8, i8, i8, i8, i8, i8, i8, i8, i8, i8, ptr, ptr, ptr, ptr, ptr, i8, i8, i8, i8, i8, i8, i8, float, i32, i32, i32, i32, %struct.ImVec2, ptr, %struct.ImVec2, [5 x i8], float, float, i32, i8, i8, i8, i8, i32, [154 x %struct.ImGuiKeyData], i8, %struct.ImVec2, [5 x %struct.ImVec2], [5 x double], [5 x i8], [5 x i8], [5 x i16], [5 x i16], [5 x i8], [5 x i8], [5 x i8], i8, i8, [5 x float], [5 x float], [5 x float], float, i8, i8, i8, i8, i16, %struct.ImVector.5 }
%struct.ImGuiKeyData = type { i8, float, float, float }
%struct.ImGuiPlatformIO = type <{ ptr, ptr, ptr, ptr, ptr, ptr, ptr, i16, [6 x i8] }>
%struct.ImGuiStyle = type { float, float, %struct.ImVec2, float, float, %struct.ImVec2, %struct.ImVec2, i32, float, float, float, float, %struct.ImVec2, float, float, %struct.ImVec2, %struct.ImVec2, %struct.ImVec2, %struct.ImVec2, float, float, float, float, float, float, float, float, float, float, float, float, float, %struct.ImVec2, i32, %struct.ImVec2, %struct.ImVec2, float, %struct.ImVec2, %struct.ImVec2, %struct.ImVec2, %struct.ImVec2, float, i8, i8, i8, float, float, [56 x %struct.ImVec4], float, float, float, i32, i32 }
%struct.ImDrawListSharedData = type { %struct.ImVec2, ptr, float, float, float, float, %struct.ImVec4, i32, %struct.ImVector.7, [48 x %struct.ImVec2], float, [64 x i8], ptr }
%struct.ImVector.11 = type { i32, i32, ptr }
%struct.ImVector.12 = type { i32, i32, ptr }
%struct.ImBitArray = type { [5 x i32] }
%struct.ImGuiKeyOwnerData = type <{ i32, i32, i8, i8, [2 x i8] }>
%struct.ImGuiKeyRoutingTable = type { [154 x i16], %struct.ImVector.13, %struct.ImVector.13 }
%struct.ImVector.13 = type { i32, i32, ptr }
%struct.ImGuiNextItemData = type <{ i32, i32, i32, [4 x i8], i64, float, i32, i32, i8, i8, %struct.ImGuiDataTypeStorage, [2 x i8], i32, [4 x i8] }>
%struct.ImGuiLastItemData = type { i32, i32, i32, %struct.ImRect, %struct.ImRect, %struct.ImRect, %struct.ImRect, i32 }
%struct.ImGuiNextWindowData = type { i32, i32, i32, i32, %struct.ImVec2, %struct.ImVec2, %struct.ImVec2, %struct.ImVec2, %struct.ImVec2, i32, i8, %struct.ImRect, ptr, ptr, float, %struct.ImVec2, i32 }
%struct.ImVector.14 = type { i32, i32, ptr }
%struct.ImVector.15 = type { i32, i32, ptr }
%struct.ImVector.16 = type { i32, i32, ptr }
%struct.ImVector.18 = type { i32, i32, ptr }
%struct.ImVector.19 = type { i32, i32, ptr }
%struct.ImVector.20 = type { i32, i32, ptr }
%struct.ImVector.21 = type { i32, i32, ptr }
%struct.ImVector.22 = type { i32, i32, ptr }
%struct.ImVector.17 = type { i32, i32, ptr }
%struct.ImGuiNavItemData = type { ptr, i32, i32, %struct.ImRect, i32, float, float, float, i64 }
%struct.ImGuiPayload = type <{ ptr, i32, i32, i32, i32, [33 x i8], i8, i8, [5 x i8] }>
%struct.ImVector.23 = type { i32, i32, ptr }
%struct.ImVector.24 = type { i32, i32, ptr }
%struct.ImVector.25 = type { i32, i32, ptr }
%struct.ImPool = type { %struct.ImVector.26, %struct.ImGuiStorage, i32, i32 }
%struct.ImVector.26 = type { i32, i32, ptr }
%struct.ImPool.27 = type { %struct.ImVector.28, %struct.ImGuiStorage, i32, i32 }
%struct.ImVector.28 = type { i32, i32, ptr }
%struct.ImVector.29 = type { i32, i32, ptr }
%struct.ImVector.30 = type { i32, i32, ptr }
%struct.ImGuiBoxSelectState = type <{ i32, i8, i8, i8, i8, i8, i16, i8, %struct.ImVec2, %struct.ImVec2, %struct.ImVec2, [4 x i8], ptr, i8, [3 x i8], %struct.ImRect, %struct.ImRect, %struct.ImRect, [4 x i8] }>
%struct.ImVector.31 = type { i32, i32, ptr }
%struct.ImPool.32 = type { %struct.ImVector.33, %struct.ImGuiStorage, i32, i32 }
%struct.ImVector.33 = type { i32, i32, ptr }
%struct.ImGuiInputTextState = type <{ ptr, ptr, i32, i32, %struct.ImVector.34, %struct.ImVector.34, %struct.ImVector.34, i32, %struct.ImVec2, float, i8, i8, i8, i8, i32, i8, [3 x i8], i32, i32, [4 x i8] }>
%struct.ImGuiInputTextDeactivatedState = type { i32, %struct.ImVector.34 }
%struct.ImFont = type <{ %struct.ImVector.1, float, float, %struct.ImVector.5, %struct.ImVector.35, ptr, ptr, ptr, i16, i16, i16, i16, float, float, i8, [3 x i8], float, float, float, i32, [2 x i8], [2 x i8] }>
%struct.ImVector.35 = type { i32, i32, ptr }
%struct.ImGuiDataTypeStorage = type { [8 x i8] }
%struct.ImGuiComboPreviewData = type { %struct.ImRect, %struct.ImVec2, %struct.ImVec2, %struct.ImVec2, float, i32 }
%struct.ImGuiTypingSelectState = type <{ %struct.ImGuiTypingSelectRequest, [64 x i8], i32, i32, float, i8, [3 x i8] }>
%struct.ImGuiTypingSelectRequest = type { i32, i32, ptr, i8, i8, i8 }
%struct.ImGuiPlatformImeData = type { i8, %struct.ImVec2, float }
%struct.ImVector.36 = type { i32, i32, ptr }
%struct.ImChunkStream = type { %struct.ImVector.34 }
%struct.ImChunkStream.37 = type { %struct.ImVector.34 }
%struct.ImVector.38 = type { i32, i32, ptr }
%struct.ImGuiErrorRecoveryState = type { i16, i16, i16, i16, i16, i16, i16, i16, i16, i16, i16 }
%struct.ImGuiTextBuffer = type { %struct.ImVector.34 }
%struct.ImGuiTextIndex = type <{ %struct.ImVector.18, i32, [4 x i8] }>
%struct.ImGuiMetricsConfig = type { i8, i8, i8, i8, i8, i8, i8, i8, i8, i32, i32, i32, i32 }
%struct.ImGuiIDStackTool = type { i32, i32, i32, %struct.ImVector.39, i8, float }
%struct.ImVector.39 = type { i32, i32, ptr }
%struct.ImGuiDebugAllocInfo = type { i32, i32, i16, [6 x %struct.ImGuiDebugAllocEntry] }
%struct.ImGuiDebugAllocEntry = type { i32, i16, i16 }
%struct.ImVector.34 = type { i32, i32, ptr }

@GImGui = external global ptr, align 8

; Function Attrs: mustprogress nounwind uwtable
define linkonce_odr dso_local void @_ZN6ImVec2C2Eff(ptr noundef nonnull align 4 dereferenceable(8) %0, float noundef %1, float noundef %2) unnamed_addr #4 comdat align 2 {
  %4 = alloca ptr, align 8
  %5 = alloca float, align 4
  %6 = alloca float, align 4
  store ptr %0, ptr %4, align 8, !tbaa !174
  store float %1, ptr %5, align 4, !tbaa !66
  store float %2, ptr %6, align 4, !tbaa !66
  %7 = load ptr, ptr %4, align 8
  %8 = getelementptr inbounds nuw %struct.ImVec2, ptr %7, i32 0, i32 0
  %9 = load float, ptr %5, align 4, !tbaa !66
  store float %9, ptr %8, align 4, !tbaa !165
  %10 = getelementptr inbounds nuw %struct.ImVec2, ptr %7, i32 0, i32 1
  %11 = load float, ptr %6, align 4, !tbaa !66
  store float %11, ptr %10, align 4, !tbaa !164
  ret void
}

; Function Attrs: mustprogress nounwind uwtable
define linkonce_odr dso_local void @_ZN6ImRectC2ERK6ImVec2S2_(ptr noundef nonnull align 4 dereferenceable(16) %0, ptr noundef nonnull align 4 dereferenceable(8) %1, ptr noundef nonnull align 4 dereferenceable(8) %2) unnamed_addr #4 comdat align 2 {
  %4 = alloca ptr, align 8
  %5 = alloca ptr, align 8
  %6 = alloca ptr, align 8
  store ptr %0, ptr %4, align 8, !tbaa !175
  store ptr %1, ptr %5, align 8, !tbaa !174
  store ptr %2, ptr %6, align 8, !tbaa !174
  %7 = load ptr, ptr %4, align 8
  %8 = getelementptr inbounds nuw %struct.ImRect, ptr %7, i32 0, i32 0
  %9 = load ptr, ptr %5, align 8, !tbaa !174
  call void @llvm.memcpy.p0.p0.i64(ptr align 4 %8, ptr align 4 %9, i64 8, i1 false), !tbaa.struct !68
  %10 = getelementptr inbounds nuw %struct.ImRect, ptr %7, i32 0, i32 1
  %11 = load ptr, ptr %6, align 8, !tbaa !174
  call void @llvm.memcpy.p0.p0.i64(ptr align 4 %10, ptr align 4 %11, i64 8, i1 false), !tbaa.struct !68
  ret void
}

; Function Attrs: inlinehint mustprogress uwtable
define internal <2 x float> @_ZplRK6ImVec2S1_(ptr noundef nonnull align 4 dereferenceable(8) %0, ptr noundef nonnull align 4 dereferenceable(8) %1) #6 {
  %3 = alloca %struct.ImVec2, align 4
  %4 = alloca ptr, align 8
  %5 = alloca ptr, align 8
  store ptr %0, ptr %4, align 8, !tbaa !174
  store ptr %1, ptr %5, align 8, !tbaa !174
  %6 = load ptr, ptr %4, align 8, !tbaa !174
  %7 = getelementptr inbounds nuw %struct.ImVec2, ptr %6, i32 0, i32 0
  %8 = load float, ptr %7, align 4, !tbaa !165
  %9 = load ptr, ptr %5, align 8, !tbaa !174
  %10 = getelementptr inbounds nuw %struct.ImVec2, ptr %9, i32 0, i32 0
  %11 = load float, ptr %10, align 4, !tbaa !165
  %12 = fadd float %8, %11
  %13 = load ptr, ptr %4, align 8, !tbaa !174
  %14 = getelementptr inbounds nuw %struct.ImVec2, ptr %13, i32 0, i32 1
  %15 = load float, ptr %14, align 4, !tbaa !164
  %16 = load ptr, ptr %5, align 8, !tbaa !174
  %17 = getelementptr inbounds nuw %struct.ImVec2, ptr %16, i32 0, i32 1
  %18 = load float, ptr %17, align 4, !tbaa !164
  %19 = fadd float %15, %18
  call void @_ZN6ImVec2C2Eff(ptr noundef nonnull align 4 dereferenceable(8) %3, float noundef %12, float noundef %19)
  %20 = load <2 x float>, ptr %3, align 4
  ret <2 x float> %20
}

; Function Attrs: inlinehint mustprogress nounwind uwtable
define linkonce_odr dso_local noundef ptr @_ZN5ImGui16GetCurrentWindowEv() #2 comdat {
  %1 = alloca ptr, align 8
  call void @llvm.lifetime.start.p0(i64 8, ptr %1) #17
  %2 = load ptr, ptr @GImGui, align 8, !tbaa !61
  store ptr %2, ptr %1, align 8, !tbaa !61
  %3 = load ptr, ptr %1, align 8, !tbaa !61
  %4 = getelementptr inbounds nuw %struct.ImGuiContext, ptr %3, i32 0, i32 34
  %5 = load ptr, ptr %4, align 8, !tbaa !172
  %6 = getelementptr inbounds nuw %struct.ImGuiWindow, ptr %5, i32 0, i32 38
  store i8 1, ptr %6, align 4, !tbaa !173
  %7 = load ptr, ptr %1, align 8, !tbaa !61
  %8 = getelementptr inbounds nuw %struct.ImGuiContext, ptr %7, i32 0, i32 34
  %9 = load ptr, ptr %8, align 8, !tbaa !172
  call void @llvm.lifetime.end.p0(i64 8, ptr %1) #17
  ret ptr %9
}

; Function Attrs: mustprogress uwtable
define dso_local void @_ZN5ImGui5DummyERK6ImVec2(ptr noundef nonnull align 4 dereferenceable(8) %0) #0 {
  %2 = alloca ptr, align 8
  %3 = alloca ptr, align 8
  %4 = alloca i32, align 4
  %5 = alloca %struct.ImRect, align 4
  %6 = alloca %struct.ImVec2, align 4
  store ptr %0, ptr %2, align 8, !tbaa !174
  call void @llvm.lifetime.start.p0(i64 8, ptr %3) #17
  %7 = call noundef ptr @_ZN5ImGui16GetCurrentWindowEv()
  store ptr %7, ptr %3, align 8, !tbaa !11
  %8 = load ptr, ptr %3, align 8, !tbaa !11
  %9 = getelementptr inbounds nuw %struct.ImGuiWindow, ptr %8, i32 0, i32 41
  %10 = load i8, ptr %9, align 1, !tbaa !13, !range !59, !noundef !60
  %11 = trunc i8 %10 to i1
  br i1 %11, label %12, label %13

12:                                               ; preds = %1
  store i32 1, ptr %4, align 4
  br label %24

13:                                               ; preds = %1
  call void @llvm.lifetime.start.p0(i64 16, ptr %5) #17
  %14 = load ptr, ptr %3, align 8, !tbaa !11
  %15 = getelementptr inbounds nuw %struct.ImGuiWindow, ptr %14, i32 0, i32 69
  %16 = getelementptr inbounds nuw %struct.ImGuiWindowTempData, ptr %15, i32 0, i32 0
  call void @llvm.lifetime.start.p0(i64 8, ptr %6) #17
  %17 = load ptr, ptr %3, align 8, !tbaa !11
  %18 = getelementptr inbounds nuw %struct.ImGuiWindow, ptr %17, i32 0, i32 69
  %19 = getelementptr inbounds nuw %struct.ImGuiWindowTempData, ptr %18, i32 0, i32 0
  %20 = load ptr, ptr %2, align 8, !tbaa !174
  %21 = call <2 x float> @_ZplRK6ImVec2S1_(ptr noundef nonnull align 4 dereferenceable(8) %19, ptr noundef nonnull align 4 dereferenceable(8) %20)
  store <2 x float> %21, ptr %6, align 4
  call void @_ZN6ImRectC2ERK6ImVec2S2_(ptr noundef nonnull align 4 dereferenceable(16) %5, ptr noundef nonnull align 4 dereferenceable(8) %16, ptr noundef nonnull align 4 dereferenceable(8) %6)
  call void @llvm.lifetime.end.p0(i64 8, ptr %6) #17
  %22 = load ptr, ptr %2, align 8, !tbaa !174
  call void @_ZN5ImGui8ItemSizeERK6ImVec2f(ptr noundef nonnull align 4 dereferenceable(8) %22, float noundef -1.000000e+00)
  %23 = call noundef zeroext i1 @_ZN5ImGui7ItemAddERK6ImRectjPS1_i(ptr noundef nonnull align 4 dereferenceable(16) %5, i32 noundef 0, ptr noundef null, i32 noundef 0)
  call void @llvm.lifetime.end.p0(i64 16, ptr %5) #17
  store i32 0, ptr %4, align 4
  br label %24

24:                                               ; preds = %13, %12
  call void @llvm.lifetime.end.p0(i64 8, ptr %3) #17
  %25 = load i32, ptr %4, align 4
  switch i32 %25, label %27 [
    i32 0, label %26
    i32 1, label %26
  ]

26:                                               ; preds = %24, %24
  ret void

27:                                               ; preds = %24
  unreachable
}