; Function Attrs: mustprogress uwtable
define dso_local void @_ZN5ImGui5DummyERK6ImVec2(ptr noundef nonnull align 4 dereferenceable(8) %0) local_unnamed_addr #0 {
  %2 = alloca %struct.ImRect, align 8
  %3 = load ptr, ptr @GImGui, align 8, !tbaa !4
  %4 = getelementptr inbounds nuw i8, ptr %3, i64 4928
  %5 = load ptr, ptr %4, align 8, !tbaa !9
  %6 = getelementptr inbounds nuw i8, ptr %5, i64 204
  store i8 1, ptr %6, align 4, !tbaa !130
  %7 = getelementptr inbounds nuw i8, ptr %5, i64 207
  %8 = load i8, ptr %7, align 1, !tbaa !151, !range !152, !noundef !153
  %9 = trunc nuw i8 %8 to i1
  br i1 %9, label %19, label %10

10:                                               ; preds = %1
  call void @llvm.lifetime.start.p0(i64 16, ptr nonnull %2) #43
  %11 = getelementptr inbounds nuw i8, ptr %5, i64 280
  %.val = load float, ptr %11, align 4, !tbaa !158
  %12 = getelementptr i8, ptr %5, i64 284
  %.val5 = load float, ptr %12, align 4, !tbaa !159
  %.val6 = load float, ptr %0, align 4, !tbaa !158
  %13 = getelementptr inbounds nuw i8, ptr %0, i64 4
  %.val7 = load float, ptr %13, align 4, !tbaa !159
  %14 = fadd float %.val, %.val6
  %15 = fadd float %.val5, %.val7
  %.sroa.0.0.vec.insert.i = insertelement <2 x float> poison, float %14, i64 0
  %.sroa.0.4.vec.insert.i = insertelement <2 x float> %.sroa.0.0.vec.insert.i, float %15, i64 1
  %16 = load i64, ptr %11, align 4
  store i64 %16, ptr %2, align 8
  %17 = getelementptr inbounds nuw i8, ptr %2, i64 8
  store <2 x float> %.sroa.0.4.vec.insert.i, ptr %17, align 8
  tail call void @_ZN5ImGui8ItemSizeERK6ImVec2f(ptr noundef nonnull align 4 dereferenceable(8) %0, float noundef -1.000000e+00)
  %18 = call noundef zeroext i1 @_ZN5ImGui7ItemAddERK6ImRectjPS1_i(ptr noundef nonnull align 4 dereferenceable(16) %2, i32 noundef 0, ptr noundef null, i32 noundef 0)
  call void @llvm.lifetime.end.p0(i64 16, ptr nonnull %2) #43
  br label %19

19:                                               ; preds = %1, %10
  ret void
}